target datalayout = "e-m:e-p270:32:32-p271:32:32-p272:64:64-i64:64-i128:128-f80:128-n8:16:32:64-S128"
target triple = "x86_64-pc-linux-gnu"

; Function Attrs: mustprogress nounwind uwtable
define void @_ZN6LibRaw10trimSpacesEPc(ptr noundef %0) #4 align 2 {
  %2 = alloca ptr, align 8
  %3 = alloca ptr, align 8
  %4 = alloca i32, align 4
  %5 = alloca i32, align 4
  store ptr %0, ptr %2, align 8, !tbaa !89
  call void @llvm.lifetime.start.p0(i64 8, ptr %3) #8
  %6 = load ptr, ptr %2, align 8, !tbaa !89
  store ptr %6, ptr %3, align 8, !tbaa !89
  call void @llvm.lifetime.start.p0(i64 4, ptr %4) #8
  %7 = load ptr, ptr %3, align 8, !tbaa !89
  %8 = call i64 @strlen(ptr noundef %7) #9
  %9 = trunc i64 %8 to i32
  store i32 %9, ptr %4, align 4, !tbaa !11
  %10 = load i32, ptr %4, align 4, !tbaa !11
  %11 = icmp ne i32 %10, 0
  br i1 %11, label %13, label %12

12:                                               ; preds = %1
  store i32 1, ptr %5, align 4
  br label %54

13:                                               ; preds = %1
  br label %14

14:                                               ; preds = %24, %13
  %15 = load ptr, ptr %3, align 8, !tbaa !89
  %16 = load i32, ptr %4, align 4, !tbaa !11
  %17 = sub nsw i32 %16, 1
  %18 = sext i32 %17 to i64
  %19 = getelementptr inbounds i8, ptr %15, i64 %18
  %20 = load i8, ptr %19, align 1, !tbaa !76
  %21 = sext i8 %20 to i32
  %22 = call i32 @isspace(i32 noundef %21) #9
  %23 = icmp ne i32 %22, 0
  br i1 %23, label %24, label %30

24:                                               ; preds = %14
  %25 = load ptr, ptr %3, align 8, !tbaa !89
  %26 = load i32, ptr %4, align 4, !tbaa !11
  %27 = add nsw i32 %26, -1
  store i32 %27, ptr %4, align 4, !tbaa !11
  %28 = sext i32 %27 to i64
  %29 = getelementptr inbounds i8, ptr %25, i64 %28
  store i8 0, ptr %29, align 1, !tbaa !76
  br label %14, !llvm.loop !90

30:                                               ; preds = %14
  br label %31

31:                                               ; preds = %43, %30
  %32 = load ptr, ptr %3, align 8, !tbaa !89
  %33 = load i8, ptr %32, align 1, !tbaa !76
  %34 = icmp ne i8 %33, 0
  br i1 %34, label %35, label %41

35:                                               ; preds = %31
  %36 = load ptr, ptr %3, align 8, !tbaa !89
  %37 = load i8, ptr %36, align 1, !tbaa !76
  %38 = sext i8 %37 to i32
  %39 = call i32 @isspace(i32 noundef %38) #9
  %40 = icmp ne i32 %39, 0
  br label %41

41:                                               ; preds = %35, %31
  %42 = phi i1 [ false, %31 ], [ %40, %35 ]
  br i1 %42, label %43, label %48

43:                                               ; preds = %41
  %44 = load ptr, ptr %3, align 8, !tbaa !89
  %45 = getelementptr inbounds nuw i8, ptr %44, i32 1
  store ptr %45, ptr %3, align 8, !tbaa !89
  %46 = load i32, ptr %4, align 4, !tbaa !11
  %47 = add nsw i32 %46, -1
  store i32 %47, ptr %4, align 4, !tbaa !11
  br label %31, !llvm.loop !91

48:                                               ; preds = %41
  %49 = load ptr, ptr %2, align 8, !tbaa !89
  %50 = load ptr, ptr %3, align 8, !tbaa !89
  %51 = load i32, ptr %4, align 4, !tbaa !11
  %52 = add nsw i32 %51, 1
  %53 = sext i32 %52 to i64
  call void @llvm.memmove.p0.p0.i64(ptr align 1 %49, ptr align 1 %50, i64 %53, i1 false)
  store i32 0, ptr %5, align 4
  br label %54

54:                                               ; preds = %48, %12
  call void @llvm.lifetime.end.p0(i64 4, ptr %4) #8
  call void @llvm.lifetime.end.p0(i64 8, ptr %3) #8
  %55 = load i32, ptr %5, align 4
  switch i32 %55, label %57 [
    i32 0, label %56
    i32 1, label %56
  ]

56:                                               ; preds = %54, %54
  ret void

57:                                               ; preds = %54
  unreachable
}

; Function Attrs: mustprogress uwtable
define void @_ZN6LibRaw17remove_caseSubstrEPcS0_(ptr noundef %0, ptr noundef %1) #0 align 2 {
  %3 = alloca ptr, align 8
  %4 = alloca ptr, align 8
  %5 = alloca ptr, align 8
  %6 = alloca i32, align 4
  %7 = alloca i32, align 4
  %8 = alloca i32, align 4
  %9 = alloca i32, align 4
  store ptr %0, ptr %3, align 8, !tbaa !89
  store ptr %1, ptr %4, align 8, !tbaa !89
  call void @llvm.lifetime.start.p0(i64 8, ptr %5) #8
  br label %10

10:                                               ; preds = %45, %2
  %11 = load ptr, ptr %3, align 8, !tbaa !89
  %12 = load ptr, ptr %4, align 8, !tbaa !89
  %13 = call noundef ptr @_ZN6LibRaw10strcasestrEPcPKc(ptr noundef %11, ptr noundef %12)
  store ptr %13, ptr %5, align 8, !tbaa !89
  %14 = icmp ne ptr %13, null
  br i1 %14, label %15, label %46

15:                                               ; preds = %10
  %16 = load ptr, ptr %5, align 8, !tbaa !89
  %17 = icmp ne ptr %16, null
  br i1 %17, label %19, label %18

18:                                               ; preds = %15
  store i32 1, ptr %6, align 4
  br label %48

19:                                               ; preds = %15
  call void @llvm.lifetime.start.p0(i64 4, ptr %7) #8
  %20 = load ptr, ptr %4, align 8, !tbaa !89
  %21 = call i64 @strlen(ptr noundef %20) #9
  %22 = trunc i64 %21 to i32
  store i32 %22, ptr %7, align 4, !tbaa !11
  call void @llvm.lifetime.start.p0(i64 4, ptr %8) #8
  %23 = load ptr, ptr %5, align 8, !tbaa !89
  %24 = load ptr, ptr %3, align 8, !tbaa !89
  %25 = ptrtoint ptr %23 to i64
  %26 = ptrtoint ptr %24 to i64
  %27 = sub i64 %25, %26
  %28 = trunc i64 %27 to i32
  store i32 %28, ptr %8, align 4, !tbaa !11
  call void @llvm.lifetime.start.p0(i64 4, ptr %9) #8
  %29 = load i32, ptr %8, align 4, !tbaa !11
  store i32 %29, ptr %9, align 4, !tbaa !11
  br label %30

30:                                               ; preds = %42, %19
  %31 = load i32, ptr %9, align 4, !tbaa !11
  %32 = load i32, ptr %8, align 4, !tbaa !11
  %33 = load i32, ptr %7, align 4, !tbaa !11
  %34 = add nsw i32 %32, %33
  %35 = icmp slt i32 %31, %34
  br i1 %35, label %37, label %36

36:                                               ; preds = %30
  store i32 4, ptr %6, align 4
  call void @llvm.lifetime.end.p0(i64 4, ptr %9) #8
  br label %45

37:                                               ; preds = %30
  %38 = load ptr, ptr %3, align 8, !tbaa !89
  %39 = load i32, ptr %9, align 4, !tbaa !11
  %40 = sext i32 %39 to i64
  %41 = getelementptr inbounds i8, ptr %38, i64 %40
  store i8 32, ptr %41, align 1, !tbaa !76
  br label %42

42:                                               ; preds = %37
  %43 = load i32, ptr %9, align 4, !tbaa !11
  %44 = add nsw i32 %43, 1
  store i32 %44, ptr %9, align 4, !tbaa !11
  br label %30, !llvm.loop !94

45:                                               ; preds = %36
  call void @llvm.lifetime.end.p0(i64 4, ptr %8) #8
  call void @llvm.lifetime.end.p0(i64 4, ptr %7) #8
  br label %10, !llvm.loop !95

46:                                               ; preds = %10
  %47 = load ptr, ptr %3, align 8, !tbaa !89
  call void @_ZN6LibRaw10trimSpacesEPc(ptr noundef %47)
  store i32 0, ptr %6, align 4
  br label %48

48:                                               ; preds = %46, %18
  call void @llvm.lifetime.end.p0(i64 8, ptr %5) #8
  %49 = load i32, ptr %6, align 4
  switch i32 %49, label %51 [
    i32 0, label %50
    i32 1, label %50
  ]

50:                                               ; preds = %48, %48
  ret void

51:                                               ; preds = %48
  unreachable
}