; Function Attrs: mustprogress uwtable
define void @_ZN6LibRaw17remove_caseSubstrEPcS0_(ptr noundef %0, ptr noundef %1) local_unnamed_addr #0 align 2 {
  %3 = tail call noundef ptr @_ZN6LibRaw10strcasestrEPcPKc(ptr noundef %0, ptr noundef %1)
  %.not15 = icmp eq ptr %3, null
  br i1 %.not15, label %._crit_edge, label %.lr.ph16

.lr.ph16:                                         ; preds = %2
  %4 = ptrtoint ptr %0 to i64
  %5 = trunc i64 %4 to i32
  %6 = add i32 %5, -1
  br label %8

.loopexit:                                        ; preds = %.lr.ph.preheader, %8
  %7 = tail call noundef ptr @_ZN6LibRaw10strcasestrEPcPKc(ptr noundef %0, ptr noundef nonnull %1)
  %.not = icmp eq ptr %7, null
  br i1 %.not, label %._crit_edge, label %8, !llvm.loop !88

8:                                                ; preds = %.lr.ph16, %.loopexit
  %9 = phi ptr [ %3, %.lr.ph16 ], [ %7, %.loopexit ]
  %10 = tail call i64 @strlen(ptr noundef nonnull dereferenceable(1) %1) #12
  %11 = trunc i64 %10 to i32
  %12 = icmp sgt i32 %11, 0
  br i1 %12, label %.lr.ph.preheader, label %.loopexit

.lr.ph.preheader:                                 ; preds = %8
  %13 = ptrtoint ptr %9 to i64
  %14 = sub i64 %13, %4
  %15 = trunc i64 %14 to i32
  %16 = add i32 %11, %15
  %sext = shl i64 %14, 32
  %17 = ashr exact i64 %sext, 32
  %scevgep = getelementptr i8, ptr %0, i64 %17
  %18 = trunc i64 %13 to i32
  %reass.sub = sub i32 %18, %5
  %19 = add i32 %reass.sub, 1
  %smax = tail call i32 @llvm.smax.i32(i32 %16, i32 %19)
  %20 = add i32 %6, %smax
  %21 = sub i32 %20, %18
  %22 = zext i32 %21 to i64
  %23 = add nuw nsw i64 %22, 1
  tail call void @llvm.memset.p0.i64(ptr noundef nonnull align 1 dereferenceable(1) %scevgep, i8 32, i64 %23, i1 false), !tbaa !73
  br label %.loopexit

._crit_edge:                                      ; preds = %.loopexit, %2
  %24 = tail call i64 @strlen(ptr noundef nonnull dereferenceable(1) %0) #12
  %25 = trunc i64 %24 to i32
  %.not.i = icmp eq i32 %25, 0
  br i1 %.not.i, label %_ZN6LibRaw10trimSpacesEPc.exit, label %.preheader19.i

.preheader19.i:                                   ; preds = %._crit_edge
  %invariant.gep.i = getelementptr i8, ptr %0, i64 -1
  %sext.i = shl i64 %24, 32
  %26 = ashr exact i64 %sext.i, 32
  %gep20.i = getelementptr i8, ptr %invariant.gep.i, i64 %26
  %27 = load i8, ptr %gep20.i, align 1, !tbaa !73
  %28 = sext i8 %27 to i32
  %29 = tail call i32 @isspace(i32 noundef %28) #12
  %.not1621.i = icmp eq i32 %29, 0
  br i1 %.not1621.i, label %.preheader.i, label %.lr.ph.i

.preheader.loopexit.i:                            ; preds = %.lr.ph.i
  %30 = trunc nsw i64 %indvars.iv.next.i to i32
  br label %.preheader.i

.preheader.i:                                     ; preds = %.preheader.loopexit.i, %.preheader19.i
  %.0.lcssa.i = phi i32 [ %25, %.preheader19.i ], [ %30, %.preheader.loopexit.i ]
  %31 = load i8, ptr %0, align 1, !tbaa !73
  %.not1723.i = icmp eq i8 %31, 0
  br i1 %.not1723.i, label %.critedge.i, label %.lr.ph26.i

.lr.ph.i:                                         ; preds = %.preheader19.i, %.lr.ph.i
  %indvars.iv.i = phi i64 [ %indvars.iv.next.i, %.lr.ph.i ], [ %26, %.preheader19.i ]
  %indvars.iv.next.i = add nsw i64 %indvars.iv.i, -1
  %32 = getelementptr inbounds i8, ptr %0, i64 %indvars.iv.next.i
  store i8 0, ptr %32, align 1, !tbaa !73
  %gep.i = getelementptr i8, ptr %invariant.gep.i, i64 %indvars.iv.next.i
  %33 = load i8, ptr %gep.i, align 1, !tbaa !73
  %34 = sext i8 %33 to i32
  %35 = tail call i32 @isspace(i32 noundef %34) #12
  %.not16.i = icmp eq i32 %35, 0
  br i1 %.not16.i, label %.preheader.loopexit.i, label %.lr.ph.i, !llvm.loop !85

.lr.ph26.i:                                       ; preds = %.preheader.i, %39
  %36 = phi i8 [ %42, %39 ], [ %31, %.preheader.i ]
  %.125.i = phi i32 [ %41, %39 ], [ %.0.lcssa.i, %.preheader.i ]
  %.01324.i = phi ptr [ %40, %39 ], [ %0, %.preheader.i ]
  %37 = sext i8 %36 to i32
  %38 = tail call i32 @isspace(i32 noundef %37) #12
  %.not18.i = icmp eq i32 %38, 0
  br i1 %.not18.i, label %.critedge.i, label %39

39:                                               ; preds = %.lr.ph26.i
  %40 = getelementptr inbounds nuw i8, ptr %.01324.i, i64 1
  %41 = add nsw i32 %.125.i, -1
  %42 = load i8, ptr %40, align 1, !tbaa !73
  %.not17.i = icmp eq i8 %42, 0
  br i1 %.not17.i, label %.critedge.i, label %.lr.ph26.i, !llvm.loop !86

.critedge.i:                                      ; preds = %39, %.lr.ph26.i, %.preheader.i
  %.013.lcssa.i = phi ptr [ %0, %.preheader.i ], [ %.01324.i, %.lr.ph26.i ], [ %40, %39 ]
  %.1.lcssa.i = phi i32 [ %.0.lcssa.i, %.preheader.i ], [ %.125.i, %.lr.ph26.i ], [ %41, %39 ]
  %43 = add nsw i32 %.1.lcssa.i, 1
  %44 = sext i32 %43 to i64
  tail call void @llvm.memmove.p0.p0.i64(ptr nonnull align 1 %0, ptr nonnull align 1 %.013.lcssa.i, i64 %44, i1 false)
  br label %_ZN6LibRaw10trimSpacesEPc.exit

_ZN6LibRaw10trimSpacesEPc.exit:                   ; preds = %._crit_edge, %.critedge.i
  ret void
}